target datalayout = "e-m:e-p270:32:32-p271:32:32-p272:64:64-i64:64-i128:128-f80:128-n8:16:32:64-S128"
target triple = "x86_64-pc-linux-gnu"

%struct.X509_name_st = type { ptr, i32, ptr, ptr, i32 }

@.str.2 = private unnamed_addr constant [32 x i8] c"../openssl/crypto/x509/x_name.c\00", align 1
@__func__.x509_name_ex_new = private unnamed_addr constant [17 x i8] c"x509_name_ex_new\00", align 1

; Function Attrs: inlinehint nounwind uwtable
define internal ptr @ossl_check_X509_NAME_ENTRY_sk_type(ptr noundef %0) #3 {
  %2 = alloca ptr, align 8
  store ptr %0, ptr %2, align 8, !tbaa !45
  %3 = load ptr, ptr %2, align 8, !tbaa !45
  ret ptr %3
}

; Function Attrs: nounwind uwtable
define internal i32 @x509_name_ex_new(ptr noundef %0, ptr noundef %1) #0 {
  %3 = alloca i32, align 4
  %4 = alloca ptr, align 8
  %5 = alloca ptr, align 8
  %6 = alloca ptr, align 8
  %7 = alloca i32, align 4
  store ptr %0, ptr %4, align 8, !tbaa !34
  store ptr %1, ptr %5, align 8, !tbaa !36
  call void @llvm.lifetime.start.p0(i64 8, ptr %6) #6
  %8 = call noalias ptr @CRYPTO_zalloc(i64 noundef 40, ptr noundef @.str.2, i32 noundef 92)
  store ptr %8, ptr %6, align 8, !tbaa !16
  %9 = load ptr, ptr %6, align 8, !tbaa !16
  %10 = icmp eq ptr %9, null
  br i1 %10, label %11, label %12

11:                                               ; preds = %2
  store i32 0, ptr %3, align 4
  store i32 1, ptr %7, align 4
  br label %39

12:                                               ; preds = %2
  %13 = call ptr @OPENSSL_sk_new_null()
  %14 = load ptr, ptr %6, align 8, !tbaa !16
  %15 = getelementptr inbounds nuw %struct.X509_name_st, ptr %14, i32 0, i32 0
  store ptr %13, ptr %15, align 8, !tbaa !38
  %16 = icmp eq ptr %13, null
  br i1 %16, label %17, label %18

17:                                               ; preds = %12
  call void @ERR_new()
  call void @ERR_set_debug(ptr noundef @.str.2, i32 noundef 97, ptr noundef @__func__.x509_name_ex_new)
  call void (i32, i32, ptr, ...) @ERR_set_error(i32 noundef 13, i32 noundef 524303, ptr noundef null)
  br label %29

18:                                               ; preds = %12
  %19 = call ptr @BUF_MEM_new()
  %20 = load ptr, ptr %6, align 8, !tbaa !16
  %21 = getelementptr inbounds nuw %struct.X509_name_st, ptr %20, i32 0, i32 2
  store ptr %19, ptr %21, align 8, !tbaa !27
  %22 = icmp eq ptr %19, null
  br i1 %22, label %23, label %24

23:                                               ; preds = %18
  call void @ERR_new()
  call void @ERR_set_debug(ptr noundef @.str.2, i32 noundef 101, ptr noundef @__func__.x509_name_ex_new)
  call void (i32, i32, ptr, ...) @ERR_set_error(i32 noundef 13, i32 noundef 524295, ptr noundef null)
  br label %29

24:                                               ; preds = %18
  %25 = load ptr, ptr %6, align 8, !tbaa !16
  %26 = getelementptr inbounds nuw %struct.X509_name_st, ptr %25, i32 0, i32 1
  store i32 1, ptr %26, align 8, !tbaa !39
  %27 = load ptr, ptr %6, align 8, !tbaa !16
  %28 = load ptr, ptr %4, align 8, !tbaa !34
  store ptr %27, ptr %28, align 8, !tbaa !40
  store i32 1, ptr %3, align 4
  store i32 1, ptr %7, align 4
  br label %39

29:                                               ; preds = %23, %17
  %30 = load ptr, ptr %6, align 8, !tbaa !16
  %31 = icmp ne ptr %30, null
  br i1 %31, label %32, label %38

32:                                               ; preds = %29
  %33 = load ptr, ptr %6, align 8, !tbaa !16
  %34 = getelementptr inbounds nuw %struct.X509_name_st, ptr %33, i32 0, i32 0
  %35 = load ptr, ptr %34, align 8, !tbaa !38
  %36 = call ptr @ossl_check_X509_NAME_ENTRY_sk_type(ptr noundef %35)
  call void @OPENSSL_sk_free(ptr noundef %36)
  %37 = load ptr, ptr %6, align 8, !tbaa !16
  call void @CRYPTO_free(ptr noundef %37, ptr noundef @.str.2, i32 noundef 111)
  br label %38

38:                                               ; preds = %32, %29
  store i32 0, ptr %3, align 4
  store i32 1, ptr %7, align 4
  br label %39

39:                                               ; preds = %38, %24, %11
  call void @llvm.lifetime.end.p0(i64 8, ptr %6) #6
  %40 = load i32, ptr %3, align 4
  ret i32 %40
}