; Function Attrs: nounwind uwtable
define internal range(i32 0, 2) i32 @x509_name_ex_new(ptr noundef writeonly captures(none) %0, ptr readnone captures(none) %1) #1 {
  %3 = tail call noalias ptr @CRYPTO_zalloc(i64 noundef 40, ptr noundef nonnull @.str.2, i32 noundef 92) #6
  %4 = icmp eq ptr %3, null
  br i1 %4, label %16, label %5

5:                                                ; preds = %2
  %6 = tail call ptr @OPENSSL_sk_new_null() #6
  store ptr %6, ptr %3, align 8, !tbaa !21
  %7 = icmp eq ptr %6, null
  br i1 %7, label %14, label %8

8:                                                ; preds = %5
  %9 = tail call ptr @BUF_MEM_new() #6
  %10 = getelementptr inbounds nuw i8, ptr %3, i64 16
  store ptr %9, ptr %10, align 8, !tbaa !9
  %11 = icmp eq ptr %9, null
  br i1 %11, label %14, label %12

12:                                               ; preds = %8
  %13 = getelementptr inbounds nuw i8, ptr %3, i64 8
  store i32 1, ptr %13, align 8, !tbaa !22
  store ptr %3, ptr %0, align 8, !tbaa !23
  br label %16

14:                                               ; preds = %8, %5
  %.sink10 = phi i32 [ 97, %5 ], [ 101, %8 ]
  %.sink = phi i32 [ 524303, %5 ], [ 524295, %8 ]
  tail call void @ERR_new() #6
  tail call void @ERR_set_debug(ptr noundef nonnull @.str.2, i32 noundef %.sink10, ptr noundef nonnull @__func__.x509_name_ex_new) #6
  tail call void (i32, i32, ptr, ...) @ERR_set_error(i32 noundef 13, i32 noundef %.sink, ptr noundef null) #6
  %15 = load ptr, ptr %3, align 8, !tbaa !21
  tail call void @OPENSSL_sk_free(ptr noundef %15) #6
  tail call void @CRYPTO_free(ptr noundef nonnull %3, ptr noundef nonnull @.str.2, i32 noundef 111) #6
  br label %16

16:                                               ; preds = %2, %14, %12
  %.0 = phi i32 [ 0, %14 ], [ 1, %12 ], [ 0, %2 ]
  ret i32 %.0
}